target datalayout = "e-m:e-p270:32:32-p271:32:32-p272:64:64-i64:64-i128:128-f80:128-n8:16:32:64-S128"
target triple = "x86_64-pc-linux-gnu"

%struct.pathspec = type { i32, i8, i32, i32, ptr }
%struct.repository = type { ptr, ptr, ptr, ptr, ptr, %struct.strmap, %struct.strmap, %struct.repo_path_cache, ptr, ptr, ptr, ptr, %struct.repo_settings, ptr, ptr, ptr, ptr, ptr, ptr, i32, i32, i32, ptr, ptr, i32, i32, i8 }
%struct.strmap = type { %struct.hashmap, ptr, i8 }
%struct.hashmap = type { ptr, ptr, ptr, i32, i32, i32, i32, i8 }
%struct.repo_path_cache = type { ptr, ptr, ptr, ptr, ptr, ptr, ptr }
%struct.repo_settings = type { i32, i32, i32, i32, i32, i32, i32, i32, i32, i32, i32, i32, ptr, i32, i32, i32, i32, i32, i32, i32, i64, i64, i64 }
%struct.pathspec_item = type { ptr, ptr, i32, i32, i32, i32, i32, i32, ptr, ptr }
%struct.path_pattern = type { ptr, i32, i32, ptr, i32, i32, i32, [0 x i8] }
%struct.pattern_list = type { i32, i32, ptr, ptr, i32, i32, %struct.hashmap, %struct.hashmap }

@nul_term_line = internal global i32 0, align 4
@quiet = internal global i32 0, align 4
@verbose = internal global i32 0, align 4
@show_non_matching = internal global i32 0, align 4
@the_repository = external global ptr, align 8
@stdout = external global ptr, align 8
@.str.12 = private unnamed_addr constant [1 x i8] zeroinitializer, align 1
@stderr = external global ptr, align 8
@.str.27 = private unnamed_addr constant [20 x i8] c"no pathspec given.\0A\00", align 1
@.str.28 = private unnamed_addr constant [2 x i8] c"!\00", align 1
@.str.29 = private unnamed_addr constant [2 x i8] c"/\00", align 1
@.str.30 = private unnamed_addr constant [12 x i8] c":%d:%s%s%s\09\00", align 1
@.str.31 = private unnamed_addr constant [4 x i8] c"::\09\00", align 1
@.str.32 = private unnamed_addr constant [5 x i8] c"%s%c\00", align 1
@.str.33 = private unnamed_addr constant [21 x i8] c"%s%c%d%c%s%s%s%c%s%c\00", align 1
@.str.34 = private unnamed_addr constant [11 x i8] c"%c%c%c%s%c\00", align 1

; Function Attrs: nounwind uwtable
define internal void @output_pattern(ptr noundef %0, ptr noundef %1) #0 {
  %3 = alloca ptr, align 8
  %4 = alloca ptr, align 8
  %5 = alloca ptr, align 8
  %6 = alloca ptr, align 8
  store ptr %0, ptr %3, align 8, !tbaa !11
  store ptr %1, ptr %4, align 8, !tbaa !52
  call void @llvm.lifetime.start.p0(i64 8, ptr %5) #8
  %7 = load ptr, ptr %4, align 8, !tbaa !52
  %8 = icmp ne ptr %7, null
  br i1 %8, label %9, label %15

9:                                                ; preds = %2
  %10 = load ptr, ptr %4, align 8, !tbaa !52
  %11 = getelementptr inbounds nuw %struct.path_pattern, ptr %10, i32 0, i32 5
  %12 = load i32, ptr %11, align 4, !tbaa !4
  %13 = and i32 %12, 16
  %14 = icmp ne i32 %13, 0
  br label %15

15:                                               ; preds = %9, %2
  %16 = phi i1 [ false, %2 ], [ %14, %9 ]
  %17 = select i1 %16, ptr @.str.28, ptr @.str.12
  store ptr %17, ptr %5, align 8, !tbaa !11
  call void @llvm.lifetime.start.p0(i64 8, ptr %6) #8
  %18 = load ptr, ptr %4, align 8, !tbaa !52
  %19 = icmp ne ptr %18, null
  br i1 %19, label %20, label %26

20:                                               ; preds = %15
  %21 = load ptr, ptr %4, align 8, !tbaa !52
  %22 = getelementptr inbounds nuw %struct.path_pattern, ptr %21, i32 0, i32 5
  %23 = load i32, ptr %22, align 4, !tbaa !4
  %24 = and i32 %23, 8
  %25 = icmp ne i32 %24, 0
  br label %26

26:                                               ; preds = %20, %15
  %27 = phi i1 [ false, %15 ], [ %25, %20 ]
  %28 = select i1 %27, ptr @.str.29, ptr @.str.12
  store ptr %28, ptr %6, align 8, !tbaa !11
  %29 = load i32, ptr @nul_term_line, align 4, !tbaa !4
  %30 = icmp ne i32 %29, 0
  br i1 %30, label %66, label %31

31:                                               ; preds = %26
  %32 = load i32, ptr @verbose, align 4, !tbaa !4
  %33 = icmp ne i32 %32, 0
  br i1 %33, label %37, label %34

34:                                               ; preds = %31
  %35 = load ptr, ptr %3, align 8, !tbaa !11
  %36 = load ptr, ptr @stdout, align 8, !tbaa !15
  call void @write_name_quoted(ptr noundef %35, ptr noundef %36, i32 noundef 10)
  br label %65

37:                                               ; preds = %31
  %38 = load ptr, ptr %4, align 8, !tbaa !52
  %39 = icmp ne ptr %38, null
  br i1 %39, label %40, label %57

40:                                               ; preds = %37
  %41 = load ptr, ptr %4, align 8, !tbaa !52
  %42 = getelementptr inbounds nuw %struct.path_pattern, ptr %41, i32 0, i32 0
  %43 = load ptr, ptr %42, align 8, !tbaa !61
  %44 = getelementptr inbounds nuw %struct.pattern_list, ptr %43, i32 0, i32 2
  %45 = load ptr, ptr %44, align 8, !tbaa !63
  %46 = load ptr, ptr @stdout, align 8, !tbaa !15
  %47 = call i64 @quote_c_style(ptr noundef %45, ptr noundef null, ptr noundef %46, i32 noundef 0)
  %48 = load ptr, ptr %4, align 8, !tbaa !52
  %49 = getelementptr inbounds nuw %struct.path_pattern, ptr %48, i32 0, i32 6
  %50 = load i32, ptr %49, align 8, !tbaa !4
  %51 = load ptr, ptr %5, align 8, !tbaa !11
  %52 = load ptr, ptr %4, align 8, !tbaa !52
  %53 = getelementptr inbounds nuw %struct.path_pattern, ptr %52, i32 0, i32 7
  %54 = getelementptr inbounds [0 x i8], ptr %53, i64 0, i64 0
  %55 = load ptr, ptr %6, align 8, !tbaa !11
  %56 = call i32 (ptr, ...) @printf(ptr noundef @.str.30, i32 noundef %50, ptr noundef %51, ptr noundef %54, ptr noundef %55)
  br label %59

57:                                               ; preds = %37
  %58 = call i32 (ptr, ...) @printf(ptr noundef @.str.31)
  br label %59

59:                                               ; preds = %57, %40
  %60 = load ptr, ptr %3, align 8, !tbaa !11
  %61 = load ptr, ptr @stdout, align 8, !tbaa !15
  %62 = call i64 @quote_c_style(ptr noundef %60, ptr noundef null, ptr noundef %61, i32 noundef 0)
  %63 = load ptr, ptr @stdout, align 8, !tbaa !15
  %64 = call i32 @fputc(i32 noundef 10, ptr noundef %63)
  br label %65

65:                                               ; preds = %59, %34
  br label %96

66:                                               ; preds = %26
  %67 = load i32, ptr @verbose, align 4, !tbaa !4
  %68 = icmp ne i32 %67, 0
  br i1 %68, label %72, label %69

69:                                               ; preds = %66
  %70 = load ptr, ptr %3, align 8, !tbaa !11
  %71 = call i32 (ptr, ...) @printf(ptr noundef @.str.32, ptr noundef %70, i32 noundef 0)
  br label %95

72:                                               ; preds = %66
  %73 = load ptr, ptr %4, align 8, !tbaa !52
  %74 = icmp ne ptr %73, null
  br i1 %74, label %75, label %91

75:                                               ; preds = %72
  %76 = load ptr, ptr %4, align 8, !tbaa !52
  %77 = getelementptr inbounds nuw %struct.path_pattern, ptr %76, i32 0, i32 0
  %78 = load ptr, ptr %77, align 8, !tbaa !61
  %79 = getelementptr inbounds nuw %struct.pattern_list, ptr %78, i32 0, i32 2
  %80 = load ptr, ptr %79, align 8, !tbaa !63
  %81 = load ptr, ptr %4, align 8, !tbaa !52
  %82 = getelementptr inbounds nuw %struct.path_pattern, ptr %81, i32 0, i32 6
  %83 = load i32, ptr %82, align 8, !tbaa !4
  %84 = load ptr, ptr %5, align 8, !tbaa !11
  %85 = load ptr, ptr %4, align 8, !tbaa !52
  %86 = getelementptr inbounds nuw %struct.path_pattern, ptr %85, i32 0, i32 7
  %87 = getelementptr inbounds [0 x i8], ptr %86, i64 0, i64 0
  %88 = load ptr, ptr %6, align 8, !tbaa !11
  %89 = load ptr, ptr %3, align 8, !tbaa !11
  %90 = call i32 (ptr, ...) @printf(ptr noundef @.str.33, ptr noundef %80, i32 noundef 0, i32 noundef %83, i32 noundef 0, ptr noundef %84, ptr noundef %87, ptr noundef %88, i32 noundef 0, ptr noundef %89, i32 noundef 0)
  br label %94

91:                                               ; preds = %72
  %92 = load ptr, ptr %3, align 8, !tbaa !11
  %93 = call i32 (ptr, ...) @printf(ptr noundef @.str.34, i32 noundef 0, i32 noundef 0, i32 noundef 0, ptr noundef %92, i32 noundef 0)
  br label %94

94:                                               ; preds = %91, %75
  br label %95

95:                                               ; preds = %94, %69
  br label %96

96:                                               ; preds = %95, %65
  call void @llvm.lifetime.end.p0(i64 8, ptr %6) #8
  call void @llvm.lifetime.end.p0(i64 8, ptr %5) #8
  ret void
}

; Function Attrs: nounwind uwtable
define internal i32 @check_ignore(ptr noundef %0, ptr noundef %1, i32 noundef %2, ptr noundef %3) #0 {
  %5 = alloca i32, align 4
  %6 = alloca ptr, align 8
  %7 = alloca ptr, align 8
  %8 = alloca i32, align 4
  %9 = alloca ptr, align 8
  %10 = alloca ptr, align 8
  %11 = alloca ptr, align 8
  %12 = alloca i32, align 4
  %13 = alloca i32, align 4
  %14 = alloca ptr, align 8
  %15 = alloca %struct.pathspec, align 8
  %16 = alloca i32, align 4
  %17 = alloca i32, align 4
  store ptr %0, ptr %6, align 8, !tbaa !19
  store ptr %1, ptr %7, align 8, !tbaa !11
  store i32 %2, ptr %8, align 4, !tbaa !4
  store ptr %3, ptr %9, align 8, !tbaa !8
  call void @llvm.lifetime.start.p0(i64 8, ptr %10) #8
  call void @llvm.lifetime.start.p0(i64 8, ptr %11) #8
  call void @llvm.lifetime.start.p0(i64 4, ptr %12) #8
  store i32 0, ptr %12, align 4, !tbaa !4
  call void @llvm.lifetime.start.p0(i64 4, ptr %13) #8
  call void @llvm.lifetime.start.p0(i64 8, ptr %14) #8
  call void @llvm.lifetime.start.p0(i64 24, ptr %15) #8
  %18 = load i32, ptr %8, align 4, !tbaa !4
  %19 = icmp ne i32 %18, 0
  br i1 %19, label %27, label %20

20:                                               ; preds = %4
  %21 = load i32, ptr @quiet, align 4, !tbaa !4
  %22 = icmp ne i32 %21, 0
  br i1 %22, label %26, label %23

23:                                               ; preds = %20
  %24 = load ptr, ptr @stderr, align 8, !tbaa !15
  %25 = call i32 (ptr, ptr, ...) @fprintf(ptr noundef %24, ptr noundef @.str.27) #8
  br label %26

26:                                               ; preds = %23, %20
  store i32 0, ptr %5, align 4
  store i32 1, ptr %16, align 4
  br label %107

27:                                               ; preds = %4
  %28 = load ptr, ptr %7, align 8, !tbaa !11
  %29 = load ptr, ptr %9, align 8, !tbaa !8
  call void @parse_pathspec(ptr noundef %15, i32 noundef 126, i32 noundef 40, ptr noundef %28, ptr noundef %29)
  %30 = load ptr, ptr @the_repository, align 8, !tbaa !13
  %31 = getelementptr inbounds nuw %struct.repository, ptr %30, i32 0, i32 15
  %32 = load ptr, ptr %31, align 8, !tbaa !26
  call void @die_path_inside_submodule(ptr noundef %32, ptr noundef %15)
  %33 = load ptr, ptr @the_repository, align 8, !tbaa !13
  %34 = getelementptr inbounds nuw %struct.repository, ptr %33, i32 0, i32 15
  %35 = load ptr, ptr %34, align 8, !tbaa !26
  %36 = call ptr @find_pathspecs_matching_against_index(ptr noundef %15, ptr noundef %35, i32 noundef 0)
  store ptr %36, ptr %11, align 8, !tbaa !11
  store i32 0, ptr %13, align 4, !tbaa !4
  br label %37

37:                                               ; preds = %101, %27
  %38 = load i32, ptr %13, align 4, !tbaa !4
  %39 = getelementptr inbounds nuw %struct.pathspec, ptr %15, i32 0, i32 0
  %40 = load i32, ptr %39, align 8, !tbaa !44
  %41 = icmp slt i32 %38, %40
  br i1 %41, label %42, label %104

42:                                               ; preds = %37
  %43 = getelementptr inbounds nuw %struct.pathspec, ptr %15, i32 0, i32 4
  %44 = load ptr, ptr %43, align 8, !tbaa !47
  %45 = load i32, ptr %13, align 4, !tbaa !4
  %46 = sext i32 %45 to i64
  %47 = getelementptr inbounds %struct.pathspec_item, ptr %44, i64 %46
  %48 = getelementptr inbounds nuw %struct.pathspec_item, ptr %47, i32 0, i32 0
  %49 = load ptr, ptr %48, align 8, !tbaa !48
  store ptr %49, ptr %10, align 8, !tbaa !11
  store ptr null, ptr %14, align 8, !tbaa !52
  %50 = load ptr, ptr %11, align 8, !tbaa !11
  %51 = load i32, ptr %13, align 4, !tbaa !4
  %52 = sext i32 %51 to i64
  %53 = getelementptr inbounds i8, ptr %50, i64 %52
  %54 = load i8, ptr %53, align 1, !tbaa !18
  %55 = icmp ne i8 %54, 0
  br i1 %55, label %76, label %56

56:                                               ; preds = %42
  call void @llvm.lifetime.start.p0(i64 4, ptr %17) #8
  store i32 0, ptr %17, align 4, !tbaa !4
  %57 = load ptr, ptr %6, align 8, !tbaa !19
  %58 = load ptr, ptr @the_repository, align 8, !tbaa !13
  %59 = getelementptr inbounds nuw %struct.repository, ptr %58, i32 0, i32 15
  %60 = load ptr, ptr %59, align 8, !tbaa !26
  %61 = load ptr, ptr %10, align 8, !tbaa !11
  %62 = call ptr @last_matching_pattern(ptr noundef %57, ptr noundef %60, ptr noundef %61, ptr noundef %17)
  store ptr %62, ptr %14, align 8, !tbaa !52
  %63 = load i32, ptr @verbose, align 4, !tbaa !4
  %64 = icmp ne i32 %63, 0
  br i1 %64, label %75, label %65

65:                                               ; preds = %56
  %66 = load ptr, ptr %14, align 8, !tbaa !52
  %67 = icmp ne ptr %66, null
  br i1 %67, label %68, label %75

68:                                               ; preds = %65
  %69 = load ptr, ptr %14, align 8, !tbaa !52
  %70 = getelementptr inbounds nuw %struct.path_pattern, ptr %69, i32 0, i32 5
  %71 = load i32, ptr %70, align 4, !tbaa !4
  %72 = and i32 %71, 16
  %73 = icmp ne i32 %72, 0
  br i1 %73, label %74, label %75

74:                                               ; preds = %68
  store ptr null, ptr %14, align 8, !tbaa !52
  br label %75

75:                                               ; preds = %74, %68, %65, %56
  call void @llvm.lifetime.end.p0(i64 4, ptr %17) #8
  br label %76

76:                                               ; preds = %75, %42
  %77 = load i32, ptr @quiet, align 4, !tbaa !4
  %78 = icmp ne i32 %77, 0
  br i1 %78, label %94, label %79

79:                                               ; preds = %76
  %80 = load ptr, ptr %14, align 8, !tbaa !52
  %81 = icmp ne ptr %80, null
  br i1 %81, label %85, label %82

82:                                               ; preds = %79
  %83 = load i32, ptr @show_non_matching, align 4, !tbaa !4
  %84 = icmp ne i32 %83, 0
  br i1 %84, label %85, label %94

85:                                               ; preds = %82, %79
  %86 = getelementptr inbounds nuw %struct.pathspec, ptr %15, i32 0, i32 4
  %87 = load ptr, ptr %86, align 8, !tbaa !47
  %88 = load i32, ptr %13, align 4, !tbaa !4
  %89 = sext i32 %88 to i64
  %90 = getelementptr inbounds %struct.pathspec_item, ptr %87, i64 %89
  %91 = getelementptr inbounds nuw %struct.pathspec_item, ptr %90, i32 0, i32 1
  %92 = load ptr, ptr %91, align 8, !tbaa !54
  %93 = load ptr, ptr %14, align 8, !tbaa !52
  call void @output_pattern(ptr noundef %92, ptr noundef %93)
  br label %94

94:                                               ; preds = %85, %82, %76
  %95 = load ptr, ptr %14, align 8, !tbaa !52
  %96 = icmp ne ptr %95, null
  br i1 %96, label %97, label %100

97:                                               ; preds = %94
  %98 = load i32, ptr %12, align 4, !tbaa !4
  %99 = add nsw i32 %98, 1
  store i32 %99, ptr %12, align 4, !tbaa !4
  br label %100

100:                                              ; preds = %97, %94
  br label %101

101:                                              ; preds = %100
  %102 = load i32, ptr %13, align 4, !tbaa !4
  %103 = add nsw i32 %102, 1
  store i32 %103, ptr %13, align 4, !tbaa !4
  br label %37, !llvm.loop !55

104:                                              ; preds = %37
  %105 = load ptr, ptr %11, align 8, !tbaa !11
  call void @free(ptr noundef %105) #8
  call void @clear_pathspec(ptr noundef %15)
  %106 = load i32, ptr %12, align 4, !tbaa !4
  store i32 %106, ptr %5, align 4
  store i32 1, ptr %16, align 4
  br label %107

107:                                              ; preds = %104, %26
  call void @llvm.lifetime.end.p0(i64 24, ptr %15) #8
  call void @llvm.lifetime.end.p0(i64 8, ptr %14) #8
  call void @llvm.lifetime.end.p0(i64 4, ptr %13) #8
  call void @llvm.lifetime.end.p0(i64 4, ptr %12) #8
  call void @llvm.lifetime.end.p0(i64 8, ptr %11) #8
  call void @llvm.lifetime.end.p0(i64 8, ptr %10) #8
  %108 = load i32, ptr %5, align 4
  ret i32 %108
}