; Function Attrs: nounwind uwtable
define internal fastcc i32 @check_ignore(ptr noundef nonnull %0, ptr noundef %1, i32 noundef %2, ptr noundef %3) unnamed_addr #0 {
  %5 = alloca %struct.pathspec, align 8
  %6 = alloca i32, align 4
  call void @llvm.lifetime.start.p0(i64 24, ptr nonnull %5) #11
  %.not = icmp eq i32 %2, 0
  br i1 %.not, label %7, label %12

7:                                                ; preds = %4
  %8 = load i32, ptr @quiet, align 4, !tbaa !9
  %.not27 = icmp eq i32 %8, 0
  br i1 %.not27, label %9, label %102

9:                                                ; preds = %7
  %10 = load ptr, ptr @stderr, align 8, !tbaa !11
  %11 = tail call i64 @fwrite(ptr nonnull @.str.27, i64 19, i64 1, ptr %10) #13
  br label %102

12:                                               ; preds = %4
  call void @parse_pathspec(ptr noundef nonnull %5, i32 noundef 126, i32 noundef 40, ptr noundef %1, ptr noundef %3) #11
  %13 = load ptr, ptr @the_repository, align 8, !tbaa !4
  %14 = getelementptr inbounds nuw i8, ptr %13, i64 384
  %15 = load ptr, ptr %14, align 8, !tbaa !23
  call void @die_path_inside_submodule(ptr noundef %15, ptr noundef nonnull %5) #11
  %16 = load ptr, ptr @the_repository, align 8, !tbaa !4
  %17 = getelementptr inbounds nuw i8, ptr %16, i64 384
  %18 = load ptr, ptr %17, align 8, !tbaa !23
  %19 = call ptr @find_pathspecs_matching_against_index(ptr noundef nonnull %5, ptr noundef %18, i32 noundef 0) #11
  %20 = load i32, ptr %5, align 8, !tbaa !41
  %21 = icmp sgt i32 %20, 0
  br i1 %21, label %.lr.ph, label %._crit_edge

.lr.ph:                                           ; preds = %12
  %22 = getelementptr inbounds nuw i8, ptr %5, i64 16
  br label %23

23:                                               ; preds = %.lr.ph, %output_pattern.exit
  %indvars.iv = phi i64 [ 0, %.lr.ph ], [ %indvars.iv.next, %output_pattern.exit ]
  %.02332 = phi i32 [ 0, %.lr.ph ], [ %spec.select, %output_pattern.exit ]
  %24 = getelementptr inbounds nuw i8, ptr %19, i64 %indvars.iv
  %25 = load i8, ptr %24, align 1, !tbaa !18
  %.not28 = icmp eq i8 %25, 0
  br i1 %.not28, label %26, label %42

26:                                               ; preds = %23
  %27 = load ptr, ptr %22, align 8, !tbaa !44
  %28 = getelementptr inbounds nuw %struct.pathspec_item, ptr %27, i64 %indvars.iv
  %29 = load ptr, ptr %28, align 8, !tbaa !45
  call void @llvm.lifetime.start.p0(i64 4, ptr nonnull %6) #11
  store i32 0, ptr %6, align 4, !tbaa !9
  %30 = load ptr, ptr @the_repository, align 8, !tbaa !4
  %31 = getelementptr inbounds nuw i8, ptr %30, i64 384
  %32 = load ptr, ptr %31, align 8, !tbaa !23
  %33 = call ptr @last_matching_pattern(ptr noundef nonnull %0, ptr noundef %32, ptr noundef %29, ptr noundef nonnull %6) #11
  %34 = load i32, ptr @verbose, align 4, !tbaa !9
  %35 = icmp eq i32 %34, 0
  %36 = icmp ne ptr %33, null
  %or.cond = select i1 %35, i1 %36, i1 false
  br i1 %or.cond, label %37, label %41

37:                                               ; preds = %26
  %38 = getelementptr inbounds nuw i8, ptr %33, i64 28
  %39 = load i32, ptr %38, align 4, !tbaa !9
  %40 = and i32 %39, 16
  %.not29 = icmp eq i32 %40, 0
  %spec.store.select = select i1 %.not29, ptr %33, ptr null
  br label %41

41:                                               ; preds = %37, %26
  %.1 = phi ptr [ %spec.store.select, %37 ], [ %33, %26 ]
  call void @llvm.lifetime.end.p0(i64 4, ptr nonnull %6) #11
  br label %42

42:                                               ; preds = %41, %23
  %.0 = phi ptr [ null, %23 ], [ %.1, %41 ]
  %43 = load i32, ptr @quiet, align 4, !tbaa !9
  %.not30 = icmp eq i32 %43, 0
  br i1 %.not30, label %44, label %output_pattern.exit

44:                                               ; preds = %42
  %45 = icmp ne ptr %.0, null
  %46 = load i32, ptr @show_non_matching, align 4
  %47 = icmp ne i32 %46, 0
  %or.cond3 = select i1 %45, i1 true, i1 %47
  br i1 %or.cond3, label %48, label %output_pattern.exit

48:                                               ; preds = %44
  %49 = load ptr, ptr %22, align 8, !tbaa !44
  %50 = getelementptr inbounds nuw %struct.pathspec_item, ptr %49, i64 %indvars.iv, i32 1
  %51 = load ptr, ptr %50, align 8, !tbaa !49
  %.not.i = icmp eq ptr %.0, null
  br i1 %.not.i, label %.thread.i, label %52

52:                                               ; preds = %48
  %53 = getelementptr inbounds nuw i8, ptr %.0, i64 28
  %54 = load i32, ptr %53, align 4, !tbaa !9
  %55 = and i32 %54, 16
  %.not21.i = icmp eq i32 %55, 0
  %56 = select i1 %.not21.i, ptr @.str.12, ptr @.str.28
  %57 = and i32 %54, 8
  %.not22.i = icmp eq i32 %57, 0
  %58 = select i1 %.not22.i, ptr @.str.12, ptr @.str.29
  br label %.thread.i

.thread.i:                                        ; preds = %52, %48
  %59 = phi ptr [ %56, %52 ], [ @.str.12, %48 ]
  %60 = phi ptr [ %58, %52 ], [ @.str.12, %48 ]
  %61 = load i32, ptr @nul_term_line, align 4, !tbaa !9
  %.not23.i = icmp eq i32 %61, 0
  %62 = load i32, ptr @verbose, align 4, !tbaa !9
  %.not24.i = icmp eq i32 %62, 0
  br i1 %.not23.i, label %63, label %84

63:                                               ; preds = %.thread.i
  br i1 %.not24.i, label %64, label %66

64:                                               ; preds = %63
  %65 = load ptr, ptr @stdout, align 8, !tbaa !11
  call void @write_name_quoted(ptr noundef %51, ptr noundef %65, i32 noundef 10) #11
  br label %output_pattern.exit

66:                                               ; preds = %63
  br i1 %.not.i, label %77, label %67

67:                                               ; preds = %66
  %68 = load ptr, ptr %.0, align 8, !tbaa !50
  %69 = getelementptr inbounds nuw i8, ptr %68, i64 8
  %70 = load ptr, ptr %69, align 8, !tbaa !52
  %71 = load ptr, ptr @stdout, align 8, !tbaa !11
  %72 = call i64 @quote_c_style(ptr noundef %70, ptr noundef null, ptr noundef %71, i32 noundef 0) #11
  %73 = getelementptr inbounds nuw i8, ptr %.0, i64 32
  %74 = load i32, ptr %73, align 8, !tbaa !9
  %75 = getelementptr inbounds nuw i8, ptr %.0, i64 36
  %76 = call i32 (ptr, ...) @printf(ptr noundef nonnull dereferenceable(1) @.str.30, i32 noundef %74, ptr noundef nonnull %59, ptr noundef nonnull %75, ptr noundef nonnull %60)
  br label %79

77:                                               ; preds = %66
  %78 = call i32 (ptr, ...) @printf(ptr noundef nonnull dereferenceable(1) @.str.31)
  br label %79

79:                                               ; preds = %77, %67
  %80 = load ptr, ptr @stdout, align 8, !tbaa !11
  %81 = call i64 @quote_c_style(ptr noundef %51, ptr noundef null, ptr noundef %80, i32 noundef 0) #11
  %82 = load ptr, ptr @stdout, align 8, !tbaa !11
  %83 = call i32 @fputc(i32 noundef 10, ptr noundef %82)
  br label %output_pattern.exit

84:                                               ; preds = %.thread.i
  br i1 %.not24.i, label %85, label %87

85:                                               ; preds = %84
  %86 = call i32 (ptr, ...) @printf(ptr noundef nonnull dereferenceable(1) @.str.32, ptr noundef %51, i32 noundef 0)
  br label %output_pattern.exit

87:                                               ; preds = %84
  br i1 %.not.i, label %96, label %88

88:                                               ; preds = %87
  %89 = load ptr, ptr %.0, align 8, !tbaa !50
  %90 = getelementptr inbounds nuw i8, ptr %89, i64 8
  %91 = load ptr, ptr %90, align 8, !tbaa !52
  %92 = getelementptr inbounds nuw i8, ptr %.0, i64 32
  %93 = load i32, ptr %92, align 8, !tbaa !9
  %94 = getelementptr inbounds nuw i8, ptr %.0, i64 36
  %95 = call i32 (ptr, ...) @printf(ptr noundef nonnull dereferenceable(1) @.str.33, ptr noundef %91, i32 noundef 0, i32 noundef %93, i32 noundef 0, ptr noundef nonnull %59, ptr noundef nonnull %94, ptr noundef nonnull %60, i32 noundef 0, ptr noundef %51, i32 noundef 0)
  br label %output_pattern.exit

96:                                               ; preds = %87
  %97 = call i32 (ptr, ...) @printf(ptr noundef nonnull dereferenceable(1) @.str.34, i32 noundef 0, i32 noundef 0, i32 noundef 0, ptr noundef %51, i32 noundef 0)
  br label %output_pattern.exit

output_pattern.exit:                              ; preds = %96, %88, %85, %79, %64, %44, %42
  %.not31 = icmp ne ptr %.0, null
  %98 = zext i1 %.not31 to i32
  %spec.select = add nuw nsw i32 %.02332, %98
  %indvars.iv.next = add nuw nsw i64 %indvars.iv, 1
  %99 = load i32, ptr %5, align 8, !tbaa !41
  %100 = sext i32 %99 to i64
  %101 = icmp slt i64 %indvars.iv.next, %100
  br i1 %101, label %23, label %._crit_edge, !llvm.loop !55

._crit_edge:                                      ; preds = %output_pattern.exit, %12
  %.023.lcssa = phi i32 [ 0, %12 ], [ %spec.select, %output_pattern.exit ]
  call void @free(ptr noundef %19) #11
  call void @clear_pathspec(ptr noundef nonnull %5) #11
  br label %102

102:                                              ; preds = %7, %9, %._crit_edge
  %.025 = phi i32 [ %.023.lcssa, %._crit_edge ], [ 0, %9 ], [ 0, %7 ]
  call void @llvm.lifetime.end.p0(i64 24, ptr nonnull %5) #11
  ret i32 %.025
}